; Function Attrs: mustprogress uwtable
define hidden void @_ZNK3ue220ComponentAlternation6acceptERNS_21ConstComponentVisitorE(ptr noundef nonnull align 8 dereferenceable(40) %this, ptr noundef nonnull align 8 dereferenceable(8) %v) unnamed_addr #0 align 2 {
entry:
  %vtable = load ptr, ptr %v, align 8
  %vfn = getelementptr inbounds i8, ptr %vtable, i64 24
  %0 = load ptr, ptr %vfn, align 8
  tail call void %0(ptr noundef nonnull align 8 dereferenceable(8) %v, ptr noundef nonnull align 8 dereferenceable(40) %this)
  %children = getelementptr inbounds i8, ptr %this, i64 16
  %1 = load ptr, ptr %children, align 8
  %_M_finish.i = getelementptr inbounds i8, ptr %this, i64 24
  %2 = load ptr, ptr %_M_finish.i, align 8
  %cmp.i.not9 = icmp eq ptr %1, %2
  br i1 %cmp.i.not9, label %for.end, label %for.body.preheader

for.body.preheader:                               ; preds = %entry
  %3 = load ptr, ptr %1, align 8
  %vtable811 = load ptr, ptr %3, align 8
  %vfn912 = getelementptr inbounds i8, ptr %vtable811, i64 32
  %4 = load ptr, ptr %vfn912, align 8
  tail call void %4(ptr noundef nonnull align 8 dereferenceable(16) %3, ptr noundef nonnull align 8 dereferenceable(8) %v)
  %add.ptr.i13 = getelementptr inbounds i8, ptr %1, i64 8
  %cmp.i4.not14 = icmp eq ptr %add.ptr.i13, %2
  br i1 %cmp.i4.not14, label %for.end, label %for.inc

for.inc:                                          ; preds = %for.body.preheader, %for.inc
  %add.ptr.i15 = phi ptr [ %add.ptr.i, %for.inc ], [ %add.ptr.i13, %for.body.preheader ]
  %vtable13 = load ptr, ptr %v, align 8
  %vfn14 = getelementptr inbounds i8, ptr %vtable13, i64 136
  %5 = load ptr, ptr %vfn14, align 8
  tail call void %5(ptr noundef nonnull align 8 dereferenceable(8) %v, ptr noundef nonnull align 8 dereferenceable(40) %this)
  %6 = load ptr, ptr %add.ptr.i15, align 8
  %vtable8 = load ptr, ptr %6, align 8
  %vfn9 = getelementptr inbounds i8, ptr %vtable8, i64 32
  %7 = load ptr, ptr %vfn9, align 8
  tail call void %7(ptr noundef nonnull align 8 dereferenceable(16) %6, ptr noundef nonnull align 8 dereferenceable(8) %v)
  %add.ptr.i = getelementptr inbounds i8, ptr %add.ptr.i15, i64 8
  %cmp.i4.not = icmp eq ptr %add.ptr.i, %2
  br i1 %cmp.i4.not, label %for.end, label %for.inc

for.end:                                          ; preds = %for.inc, %for.body.preheader, %entry
  %vtable16 = load ptr, ptr %v, align 8
  %vfn17 = getelementptr inbounds i8, ptr %vtable16, i64 248
  %8 = load ptr, ptr %vfn17, align 8
  tail call void %8(ptr noundef nonnull align 8 dereferenceable(8) %v, ptr noundef nonnull align 8 dereferenceable(40) %this)
  ret void
}